target datalayout = "e-m:e-p270:32:32-p271:32:32-p272:64:64-i64:64-i128:128-f80:128-n8:16:32:64-S128"
target triple = "x86_64-pc-linux-gnu"

%struct.sentinelRedisInstance = type { i32, ptr, ptr, i64, ptr, ptr, i64, i64, i64, i64, i64, i64, i64, i64, i64, ptr, i32, i64, i64, ptr, ptr, i32, i32, ptr, ptr, i64, i32, i32, i64, ptr, ptr, i32, i32, i64, ptr, i64, i64, i32, i64, i64, i64, i64, ptr, ptr, ptr, ptr }

@.str.21 = private unnamed_addr constant [11 x i8] c"sentinel.c\00", align 1
@.str.43 = private unnamed_addr constant [23 x i8] c"ri->flags & SRI_MASTER\00", align 1

; Function Attrs: nounwind uwtable
define dso_local void @sentinelFailoverStateMachine(ptr noundef %0) #0 {
  %2 = alloca ptr, align 8
  store ptr %0, ptr %2, align 8, !tbaa !11
  %3 = load ptr, ptr %2, align 8, !tbaa !11
  %4 = getelementptr inbounds nuw %struct.sentinelRedisInstance, ptr %3, i32 0, i32 0
  %5 = load i32, ptr %4, align 8, !tbaa !34
  %6 = and i32 %5, 1
  %7 = icmp ne i32 %6, 0
  %8 = xor i1 %7, true
  %9 = xor i1 %8, true
  %10 = zext i1 %9 to i32
  %11 = sext i32 %10 to i64
  %12 = call i64 @llvm.expect.i64(i64 %11, i64 1)
  %13 = icmp ne i64 %12, 0
  br i1 %13, label %14, label %15

14:                                               ; preds = %1
  br label %17

15:                                               ; preds = %1
  call void @_serverAssert(ptr noundef @.str.43, ptr noundef @.str.21, i32 noundef 5311)
  call void @abort() #15
  unreachable

16:                                               ; No predecessors!
  br label %17

17:                                               ; preds = %16, %14
  %18 = load ptr, ptr %2, align 8, !tbaa !11
  %19 = getelementptr inbounds nuw %struct.sentinelRedisInstance, ptr %18, i32 0, i32 0
  %20 = load i32, ptr %19, align 8, !tbaa !34
  %21 = and i32 %20, 64
  %22 = icmp ne i32 %21, 0
  br i1 %22, label %24, label %23

23:                                               ; preds = %17
  br label %38

24:                                               ; preds = %17
  %25 = load ptr, ptr %2, align 8, !tbaa !11
  %26 = getelementptr inbounds nuw %struct.sentinelRedisInstance, ptr %25, i32 0, i32 37
  %27 = load i32, ptr %26, align 8, !tbaa !193
  switch i32 %27, label %38 [
    i32 1, label %28
    i32 2, label %30
    i32 3, label %32
    i32 4, label %34
    i32 5, label %36
  ]

28:                                               ; preds = %24
  %29 = load ptr, ptr %2, align 8, !tbaa !11
  call void @sentinelFailoverWaitStart(ptr noundef %29)
  br label %38

30:                                               ; preds = %24
  %31 = load ptr, ptr %2, align 8, !tbaa !11
  call void @sentinelFailoverSelectSlave(ptr noundef %31)
  br label %38

32:                                               ; preds = %24
  %33 = load ptr, ptr %2, align 8, !tbaa !11
  call void @sentinelFailoverSendSlaveOfNoOne(ptr noundef %33)
  br label %38

34:                                               ; preds = %24
  %35 = load ptr, ptr %2, align 8, !tbaa !11
  call void @sentinelFailoverWaitPromotion(ptr noundef %35)
  br label %38

36:                                               ; preds = %24
  %37 = load ptr, ptr %2, align 8, !tbaa !11
  call void @sentinelFailoverReconfNextSlave(ptr noundef %37)
  br label %38

38:                                               ; preds = %23, %24, %36, %34, %32, %30, %28
  ret void
}