; Function Attrs: nounwind uwtable
define dso_local void @sentinelFailoverStateMachine(ptr noundef captures(address_is_null) %0) local_unnamed_addr #0 {
  %2 = load i32, ptr %0, align 8, !tbaa !34
  %3 = and i32 %2, 1
  %.not = icmp eq i32 %3, 0
  br i1 %.not, label %4, label %5, !prof !144

4:                                                ; preds = %1
  tail call void @_serverAssert(ptr noundef nonnull @.str.43, ptr noundef nonnull @.str.21, i32 noundef 5311) #30
  tail call void @abort() #35
  unreachable

5:                                                ; preds = %1
  %6 = and i32 %2, 64
  %.not8 = icmp eq i32 %6, 0
  br i1 %.not8, label %15, label %7

7:                                                ; preds = %5
  %8 = getelementptr inbounds nuw i8, ptr %0, i64 272
  %9 = load i32, ptr %8, align 8, !tbaa !169
  switch i32 %9, label %15 [
    i32 1, label %10
    i32 2, label %11
    i32 3, label %12
    i32 4, label %13
    i32 5, label %14
  ]

10:                                               ; preds = %7
  tail call void @sentinelFailoverWaitStart(ptr noundef nonnull %0)
  br label %15

11:                                               ; preds = %7
  tail call void @sentinelFailoverSelectSlave(ptr noundef nonnull %0)
  br label %15

12:                                               ; preds = %7
  tail call void @sentinelFailoverSendSlaveOfNoOne(ptr noundef nonnull %0)
  br label %15

13:                                               ; preds = %7
  tail call void @sentinelFailoverWaitPromotion(ptr noundef nonnull %0)
  br label %15

14:                                               ; preds = %7
  tail call void @sentinelFailoverReconfNextSlave(ptr noundef nonnull %0)
  br label %15

15:                                               ; preds = %5, %14, %13, %12, %11, %10, %7
  ret void
}